target datalayout = "e-m:e-p270:32:32-p271:32:32-p272:64:64-i64:64-i128:128-f80:128-n8:16:32:64-S128"
target triple = "x86_64-pc-linux-gnu"

%struct._VAConfigAttrib = type { i32, i32 }
%struct.AVCodecContext = type { ptr, i32, i32, ptr, i32, i32, ptr, ptr, ptr, i64, i32, i32, ptr, i32, %struct.AVRational, %struct.AVRational, %struct.AVRational, i32, i32, i32, i32, i32, %struct.AVRational, i32, i32, i32, i32, i32, i32, i32, i32, i32, i32, i32, ptr, ptr, i32, float, float, float, float, float, float, float, float, float, i32, i32, i32, i32, i32, i32, i32, i32, i32, i32, i32, i32, ptr, ptr, ptr, i32, i32, i32, i32, i32, i32, i32, i32, i32, i32, %struct.AVChannelLayout, i32, i32, i32, i32, i32, i32, i32, i32, ptr, i32, i32, i32, float, float, i32, i32, i32, i32, i32, ptr, i64, i64, float, float, i32, i32, ptr, ptr, i32, i32, i32, i32, i32, ptr, ptr, ptr, ptr, i32, i32, [8 x i64], i32, i32, i32, i32, i32, i32, i32, ptr, ptr, i32, i32, i32, i32, i32, i32, i32, i32, i32, i32, ptr, ptr, i32, i32, ptr, ptr, ptr, ptr, i32, i32, i64, i32, i32, i64, ptr, i64, ptr, i32, ptr, i32 }
%struct.AVRational = type { i32, i32 }
%struct.AVChannelLayout = type { i32, i32, %union.anon, ptr }
%union.anon = type { i64 }
%struct.VAAPIEncodeContext = type { %struct.FFHWBaseEncodeContext, ptr, i32, i32, i32, i32, i32, i32, ptr, ptr, i32, i32, i32, i32, i32, i32, [4 x %struct._VAConfigAttrib], i32, i32, i32, ptr, ptr, [4 x i32], [4 x ptr], [4 x i64], i32, %struct._VAEncMiscParameterRateControl, %struct._VAEncMiscParameterHRD, %struct._VAEncMiscParameterFrameRate, %struct._VAEncMiscParameterBufferMaxFrameSize, %struct._VAEncMiscParameterBufferQualityLevel, ptr, ptr, i32, i32, i32, i32, i32, i32, [20 x i32], [22 x i32], [21 x i32], [23 x i32], i32, i32, ptr, i32, i32 }
%struct.FFHWBaseEncodeContext = type { ptr, ptr, ptr, i32, i32, i32, i32, i32, i32, ptr, ptr, ptr, ptr, ptr, ptr, ptr, ptr, [2 x ptr], i32, i64, i64, i64, i64, i64, i64, i64, [112 x i64], i32, i32, i32, i32, i32, i32, i32, i32, i32, i32, i32, i32, i32, i32, i32, i32, ptr, i32, ptr, i32, ptr }
%struct._VAEncMiscParameterRateControl = type { i32, i32, i32, i32, i32, i32, %union.anon.0, i32, i32, i32, i32, [4 x i32] }
%union.anon.0 = type { %struct.anon }
%struct.anon = type { i32 }
%struct._VAEncMiscParameterHRD = type { i32, i32, [4 x i32] }
%struct._VAEncMiscParameterFrameRate = type { i32, %union.anon.1, [4 x i32] }
%union.anon.1 = type { %struct.anon.2 }
%struct.anon.2 = type { i32 }
%struct._VAEncMiscParameterBufferMaxFrameSize = type { i32, i32, [4 x i32] }
%struct._VAEncMiscParameterBufferQualityLevel = type { i32, [4 x i32] }
%struct.VAAPIEncodeType = type { ptr, i32, i32, ptr, ptr, i64, i64, i64, i64, ptr, ptr, ptr, i32, i32, i32, ptr, ptr, ptr, ptr, ptr }
%struct.AVVAAPIDeviceContext = type { ptr, i32 }

@__const.vaapi_encode_init_gop_structure.attr = private unnamed_addr constant %struct._VAConfigAttrib { i32 13, i32 0 }, align 4
@.str.123 = private unnamed_addr constant [54 x i8] c"Failed to query reference frames attribute: %d (%s).\0A\00", align 1
@.str.124 = private unnamed_addr constant [58 x i8] c"Failed to query prediction direction attribute: %d (%s).\0A\00", align 1
@.str.125 = private unnamed_addr constant [63 x i8] c"Driver does not report any additional prediction constraints.\0A\00", align 1
@.str.126 = private unnamed_addr constant [57 x i8] c"Driver report incorrect prediction direction attribute.\0A\00", align 1
@.str.127 = private unnamed_addr constant [56 x i8] c"Driver only support same reference lists for B-frames.\0A\00", align 1
@.str.128 = private unnamed_addr constant [65 x i8] c"Driver does not support P-frames, replacing them with B-frames.\0A\00", align 1

; Function Attrs: cold nounwind optsize uwtable
define internal i32 @vaapi_encode_init_gop_structure(ptr noundef %0) #2 {
  %2 = alloca i32, align 4
  %3 = alloca ptr, align 8
  %4 = alloca ptr, align 8
  %5 = alloca ptr, align 8
  %6 = alloca i32, align 4
  %7 = alloca %struct._VAConfigAttrib, align 4
  %8 = alloca i32, align 4
  %9 = alloca i32, align 4
  %10 = alloca i32, align 4
  %11 = alloca i32, align 4
  %12 = alloca i32, align 4
  %13 = alloca %struct._VAConfigAttrib, align 4
  store ptr %0, ptr %3, align 8, !tbaa !4
  call void @llvm.lifetime.start.p0(i64 8, ptr %4) #10
  %14 = load ptr, ptr %3, align 8, !tbaa !4
  %15 = getelementptr inbounds nuw %struct.AVCodecContext, ptr %14, i32 0, i32 6
  %16 = load ptr, ptr %15, align 8, !tbaa !11
  store ptr %16, ptr %4, align 8, !tbaa !31
  call void @llvm.lifetime.start.p0(i64 8, ptr %5) #10
  %17 = load ptr, ptr %3, align 8, !tbaa !4
  %18 = getelementptr inbounds nuw %struct.AVCodecContext, ptr %17, i32 0, i32 6
  %19 = load ptr, ptr %18, align 8, !tbaa !11
  store ptr %19, ptr %5, align 8, !tbaa !33
  call void @llvm.lifetime.start.p0(i64 4, ptr %6) #10
  call void @llvm.lifetime.start.p0(i64 8, ptr %7) #10
  call void @llvm.memcpy.p0.p0.i64(ptr align 4 %7, ptr align 4 @__const.vaapi_encode_init_gop_structure.attr, i64 8, i1 false)
  call void @llvm.lifetime.start.p0(i64 4, ptr %8) #10
  call void @llvm.lifetime.start.p0(i64 4, ptr %9) #10
  call void @llvm.lifetime.start.p0(i64 4, ptr %10) #10
  call void @llvm.lifetime.start.p0(i64 4, ptr %11) #10
  %20 = load ptr, ptr %5, align 8, !tbaa !33
  %21 = getelementptr inbounds nuw %struct.VAAPIEncodeContext, ptr %20, i32 0, i32 20
  %22 = load ptr, ptr %21, align 8, !tbaa !62
  %23 = getelementptr inbounds nuw %struct.AVVAAPIDeviceContext, ptr %22, i32 0, i32 0
  %24 = load ptr, ptr %23, align 8, !tbaa !75
  %25 = load ptr, ptr %5, align 8, !tbaa !33
  %26 = getelementptr inbounds nuw %struct.VAAPIEncodeContext, ptr %25, i32 0, i32 11
  %27 = load i32, ptr %26, align 4, !tbaa !77
  %28 = load ptr, ptr %5, align 8, !tbaa !33
  %29 = getelementptr inbounds nuw %struct.VAAPIEncodeContext, ptr %28, i32 0, i32 12
  %30 = load i32, ptr %29, align 8, !tbaa !78
  %31 = call i32 @vaGetConfigAttributes(ptr noundef %24, i32 noundef %27, i32 noundef %30, ptr noundef %7, i32 noundef 1)
  store i32 %31, ptr %6, align 4, !tbaa !37
  %32 = load i32, ptr %6, align 4, !tbaa !37
  %33 = icmp ne i32 %32, 0
  br i1 %33, label %34, label %39

34:                                               ; preds = %1
  %35 = load ptr, ptr %3, align 8, !tbaa !4
  %36 = load i32, ptr %6, align 4, !tbaa !37
  %37 = load i32, ptr %6, align 4, !tbaa !37
  %38 = call ptr @vaErrorStr(i32 noundef %37)
  call void (ptr, i32, ptr, ...) @av_log(ptr noundef %35, i32 noundef 16, ptr noundef @.str.123, i32 noundef %36, ptr noundef %38)
  store i32 -542398533, ptr %2, align 4
  store i32 1, ptr %12, align 4
  br label %166

39:                                               ; preds = %1
  %40 = getelementptr inbounds nuw %struct._VAConfigAttrib, ptr %7, i32 0, i32 1
  %41 = load i32, ptr %40, align 4, !tbaa !149
  %42 = icmp eq i32 %41, -2147483648
  br i1 %42, label %43, label %44

43:                                               ; preds = %39
  store i32 0, ptr %9, align 4, !tbaa !37
  store i32 0, ptr %8, align 4, !tbaa !37
  br label %52

44:                                               ; preds = %39
  %45 = getelementptr inbounds nuw %struct._VAConfigAttrib, ptr %7, i32 0, i32 1
  %46 = load i32, ptr %45, align 4, !tbaa !149
  %47 = and i32 %46, 65535
  store i32 %47, ptr %8, align 4, !tbaa !37
  %48 = getelementptr inbounds nuw %struct._VAConfigAttrib, ptr %7, i32 0, i32 1
  %49 = load i32, ptr %48, align 4, !tbaa !149
  %50 = lshr i32 %49, 16
  %51 = and i32 %50, 65535
  store i32 %51, ptr %9, align 4, !tbaa !37
  br label %52

52:                                               ; preds = %44, %43
  %53 = load ptr, ptr %4, align 8, !tbaa !31
  %54 = getelementptr inbounds nuw %struct.FFHWBaseEncodeContext, ptr %53, i32 0, i32 37
  store i32 0, ptr %54, align 8, !tbaa !200
  store i32 0, ptr %10, align 4, !tbaa !37
  %55 = load ptr, ptr %5, align 8, !tbaa !33
  %56 = getelementptr inbounds nuw %struct.VAAPIEncodeContext, ptr %55, i32 0, i32 1
  %57 = load ptr, ptr %56, align 8, !tbaa !63
  %58 = getelementptr inbounds nuw %struct.VAAPIEncodeType, ptr %57, i32 0, i32 1
  %59 = load i32, ptr %58, align 8, !tbaa !70
  %60 = and i32 %59, 4
  %61 = icmp ne i32 %60, 0
  br i1 %61, label %149, label %62

62:                                               ; preds = %52
  %63 = load ptr, ptr %3, align 8, !tbaa !4
  %64 = getelementptr inbounds nuw %struct.AVCodecContext, ptr %63, i32 0, i32 66
  %65 = load i32, ptr %64, align 4, !tbaa !167
  %66 = icmp sle i32 %65, 1
  br i1 %66, label %149, label %67

67:                                               ; preds = %62
  %68 = getelementptr inbounds nuw %struct._VAConfigAttrib, ptr %13, i32 0, i32 0
  store i32 39, ptr %68, align 4, !tbaa !147
  %69 = getelementptr inbounds nuw %struct._VAConfigAttrib, ptr %13, i32 0, i32 1
  store i32 0, ptr %69, align 4, !tbaa !149
  call void @llvm.memcpy.p0.p0.i64(ptr align 4 %7, ptr align 4 %13, i64 8, i1 false), !tbaa.struct !150
  %70 = load ptr, ptr %5, align 8, !tbaa !33
  %71 = getelementptr inbounds nuw %struct.VAAPIEncodeContext, ptr %70, i32 0, i32 20
  %72 = load ptr, ptr %71, align 8, !tbaa !62
  %73 = getelementptr inbounds nuw %struct.AVVAAPIDeviceContext, ptr %72, i32 0, i32 0
  %74 = load ptr, ptr %73, align 8, !tbaa !75
  %75 = load ptr, ptr %5, align 8, !tbaa !33
  %76 = getelementptr inbounds nuw %struct.VAAPIEncodeContext, ptr %75, i32 0, i32 11
  %77 = load i32, ptr %76, align 4, !tbaa !77
  %78 = load ptr, ptr %5, align 8, !tbaa !33
  %79 = getelementptr inbounds nuw %struct.VAAPIEncodeContext, ptr %78, i32 0, i32 12
  %80 = load i32, ptr %79, align 8, !tbaa !78
  %81 = call i32 @vaGetConfigAttributes(ptr noundef %74, i32 noundef %77, i32 noundef %80, ptr noundef %7, i32 noundef 1)
  store i32 %81, ptr %6, align 4, !tbaa !37
  %82 = load i32, ptr %6, align 4, !tbaa !37
  %83 = icmp ne i32 %82, 0
  br i1 %83, label %84, label %89

84:                                               ; preds = %67
  %85 = load ptr, ptr %3, align 8, !tbaa !4
  %86 = load i32, ptr %6, align 4, !tbaa !37
  %87 = load i32, ptr %6, align 4, !tbaa !37
  %88 = call ptr @vaErrorStr(i32 noundef %87)
  call void (ptr, i32, ptr, ...) @av_log(ptr noundef %85, i32 noundef 24, ptr noundef @.str.124, i32 noundef %86, ptr noundef %88)
  store i32 -542398533, ptr %2, align 4
  store i32 1, ptr %12, align 4
  br label %166

89:                                               ; preds = %67
  %90 = getelementptr inbounds nuw %struct._VAConfigAttrib, ptr %7, i32 0, i32 1
  %91 = load i32, ptr %90, align 4, !tbaa !149
  %92 = icmp eq i32 %91, -2147483648
  br i1 %92, label %93, label %95

93:                                               ; preds = %89
  %94 = load ptr, ptr %3, align 8, !tbaa !4
  call void (ptr, i32, ptr, ...) @av_log(ptr noundef %94, i32 noundef 40, ptr noundef @.str.125)
  br label %147

95:                                               ; preds = %89
  %96 = load i32, ptr %8, align 4, !tbaa !37
  %97 = icmp ugt i32 %96, 0
  br i1 %97, label %101, label %98

98:                                               ; preds = %95
  %99 = load i32, ptr %9, align 4, !tbaa !37
  %100 = icmp ugt i32 %99, 0
  br i1 %100, label %101, label %106

101:                                              ; preds = %98, %95
  %102 = getelementptr inbounds nuw %struct._VAConfigAttrib, ptr %7, i32 0, i32 1
  %103 = load i32, ptr %102, align 4, !tbaa !149
  %104 = and i32 %103, 1
  %105 = icmp ne i32 %104, 0
  br i1 %105, label %106, label %114

106:                                              ; preds = %101, %98
  %107 = load i32, ptr %9, align 4, !tbaa !37
  %108 = icmp eq i32 %107, 0
  br i1 %108, label %109, label %116

109:                                              ; preds = %106
  %110 = getelementptr inbounds nuw %struct._VAConfigAttrib, ptr %7, i32 0, i32 1
  %111 = load i32, ptr %110, align 4, !tbaa !149
  %112 = and i32 %111, 6
  %113 = icmp ne i32 %112, 0
  br i1 %113, label %114, label %116

114:                                              ; preds = %109, %101
  %115 = load ptr, ptr %3, align 8, !tbaa !4
  call void (ptr, i32, ptr, ...) @av_log(ptr noundef %115, i32 noundef 16, ptr noundef @.str.126)
  store i32 -542398533, ptr %2, align 4
  store i32 1, ptr %12, align 4
  br label %166

116:                                              ; preds = %109, %106
  %117 = getelementptr inbounds nuw %struct._VAConfigAttrib, ptr %7, i32 0, i32 1
  %118 = load i32, ptr %117, align 4, !tbaa !149
  %119 = and i32 %118, 2
  %120 = icmp ne i32 %119, 0
  br i1 %120, label %130, label %121

121:                                              ; preds = %116
  %122 = load i32, ptr %8, align 4, !tbaa !37
  %123 = icmp ugt i32 %122, 0
  br i1 %123, label %124, label %129

124:                                              ; preds = %121
  %125 = load i32, ptr %9, align 4, !tbaa !37
  %126 = icmp ugt i32 %125, 0
  br i1 %126, label %127, label %129

127:                                              ; preds = %124
  store i32 1, ptr %10, align 4, !tbaa !37
  %128 = load ptr, ptr %3, align 8, !tbaa !4
  call void (ptr, i32, ptr, ...) @av_log(ptr noundef %128, i32 noundef 40, ptr noundef @.str.127)
  br label %129

129:                                              ; preds = %127, %124, %121
  br label %130

130:                                              ; preds = %129, %116
  %131 = getelementptr inbounds nuw %struct._VAConfigAttrib, ptr %7, i32 0, i32 1
  %132 = load i32, ptr %131, align 4, !tbaa !149
  %133 = and i32 %132, 4
  %134 = icmp ne i32 %133, 0
  br i1 %134, label %135, label %146

135:                                              ; preds = %130
  %136 = load i32, ptr %8, align 4, !tbaa !37
  %137 = icmp ugt i32 %136, 0
  br i1 %137, label %138, label %145

138:                                              ; preds = %135
  %139 = load i32, ptr %9, align 4, !tbaa !37
  %140 = icmp ugt i32 %139, 0
  br i1 %140, label %141, label %145

141:                                              ; preds = %138
  %142 = load ptr, ptr %4, align 8, !tbaa !31
  %143 = getelementptr inbounds nuw %struct.FFHWBaseEncodeContext, ptr %142, i32 0, i32 37
  store i32 1, ptr %143, align 8, !tbaa !200
  %144 = load ptr, ptr %3, align 8, !tbaa !4
  call void (ptr, i32, ptr, ...) @av_log(ptr noundef %144, i32 noundef 40, ptr noundef @.str.128)
  br label %145

145:                                              ; preds = %141, %138, %135
  br label %146

146:                                              ; preds = %145, %130
  br label %147

147:                                              ; preds = %146, %93
  br label %148

148:                                              ; preds = %147
  br label %149

149:                                              ; preds = %148, %62, %52
  %150 = load ptr, ptr %4, align 8, !tbaa !31
  %151 = load ptr, ptr %3, align 8, !tbaa !4
  %152 = load i32, ptr %8, align 4, !tbaa !37
  %153 = load i32, ptr %9, align 4, !tbaa !37
  %154 = load ptr, ptr %5, align 8, !tbaa !33
  %155 = getelementptr inbounds nuw %struct.VAAPIEncodeContext, ptr %154, i32 0, i32 1
  %156 = load ptr, ptr %155, align 8, !tbaa !63
  %157 = getelementptr inbounds nuw %struct.VAAPIEncodeType, ptr %156, i32 0, i32 1
  %158 = load i32, ptr %157, align 8, !tbaa !70
  %159 = load i32, ptr %10, align 4, !tbaa !37
  %160 = call i32 @ff_hw_base_init_gop_structure(ptr noundef %150, ptr noundef %151, i32 noundef %152, i32 noundef %153, i32 noundef %158, i32 noundef %159)
  store i32 %160, ptr %11, align 4, !tbaa !37
  %161 = load i32, ptr %11, align 4, !tbaa !37
  %162 = icmp slt i32 %161, 0
  br i1 %162, label %163, label %165

163:                                              ; preds = %149
  %164 = load i32, ptr %11, align 4, !tbaa !37
  store i32 %164, ptr %2, align 4
  store i32 1, ptr %12, align 4
  br label %166

165:                                              ; preds = %149
  store i32 0, ptr %2, align 4
  store i32 1, ptr %12, align 4
  br label %166

166:                                              ; preds = %165, %163, %114, %84, %34
  call void @llvm.lifetime.end.p0(i64 4, ptr %11) #10
  call void @llvm.lifetime.end.p0(i64 4, ptr %10) #10
  call void @llvm.lifetime.end.p0(i64 4, ptr %9) #10
  call void @llvm.lifetime.end.p0(i64 4, ptr %8) #10
  call void @llvm.lifetime.end.p0(i64 8, ptr %7) #10
  call void @llvm.lifetime.end.p0(i64 4, ptr %6) #10
  call void @llvm.lifetime.end.p0(i64 8, ptr %5) #10
  call void @llvm.lifetime.end.p0(i64 8, ptr %4) #10
  %167 = load i32, ptr %2, align 4
  ret i32 %167
}