; Function Attrs: cold nounwind optsize uwtable
define internal fastcc range(i32 -2147483648, 1) i32 @vaapi_encode_init_gop_structure(ptr noundef %0) unnamed_addr #2 {
  %2 = alloca %struct._VAConfigAttrib, align 8
  %3 = getelementptr inbounds nuw i8, ptr %0, i64 32
  %4 = load ptr, ptr %3, align 8, !tbaa !4
  call void @llvm.lifetime.start.p0(i64 8, ptr nonnull %2) #9
  store i64 13, ptr %2, align 8
  %5 = getelementptr inbounds nuw i8, ptr %4, i64 1312
  %6 = load ptr, ptr %5, align 8, !tbaa !52
  %7 = load ptr, ptr %6, align 8, !tbaa !65
  %8 = getelementptr inbounds nuw i8, ptr %4, i64 1244
  %9 = load i32, ptr %8, align 4, !tbaa !67
  %10 = getelementptr inbounds nuw i8, ptr %4, i64 1248
  %11 = load i32, ptr %10, align 8, !tbaa !68
  %12 = call i32 @vaGetConfigAttributes(ptr noundef %7, i32 noundef %9, i32 noundef %11, ptr noundef nonnull %2, i32 noundef 1) #9
  %.not = icmp eq i32 %12, 0
  br i1 %.not, label %15, label %13

13:                                               ; preds = %1
  %14 = call ptr @vaErrorStr(i32 noundef %12) #9
  call void (ptr, i32, ptr, ...) @av_log(ptr noundef nonnull %0, i32 noundef 16, ptr noundef nonnull @.str.123, i32 noundef %12, ptr noundef %14) #9
  br label %61

15:                                               ; preds = %1
  %16 = getelementptr inbounds nuw i8, ptr %2, i64 4
  %17 = load i32, ptr %16, align 4, !tbaa !132
  %18 = icmp eq i32 %17, -2147483648
  %19 = and i32 %17, 65535
  %20 = lshr i32 %17, 16
  %.046 = select i1 %18, i32 0, i32 %20
  %21 = getelementptr inbounds nuw i8, ptr %4, i64 1128
  store i32 0, ptr %21, align 8, !tbaa !166
  %22 = getelementptr inbounds nuw i8, ptr %4, i64 1192
  %23 = load ptr, ptr %22, align 8, !tbaa !53
  %24 = getelementptr inbounds nuw i8, ptr %23, i64 8
  %25 = load i32, ptr %24, align 8, !tbaa !60
  %26 = and i32 %25, 4
  %.not52 = icmp eq i32 %26, 0
  br i1 %.not52, label %27, label %.thread.thread

27:                                               ; preds = %15
  %28 = getelementptr inbounds nuw i8, ptr %0, i64 332
  %29 = load i32, ptr %28, align 4, !tbaa !149
  %30 = icmp slt i32 %29, 2
  br i1 %30, label %.thread.thread, label %31

31:                                               ; preds = %27
  store i32 39, ptr %2, align 8, !tbaa !109
  store i32 0, ptr %16, align 4, !tbaa !109
  %32 = load ptr, ptr %5, align 8, !tbaa !52
  %33 = load ptr, ptr %32, align 8, !tbaa !65
  %34 = load i32, ptr %8, align 4, !tbaa !67
  %35 = load i32, ptr %10, align 8, !tbaa !68
  %36 = call i32 @vaGetConfigAttributes(ptr noundef %33, i32 noundef %34, i32 noundef %35, ptr noundef nonnull %2, i32 noundef 1) #9
  %.not53 = icmp eq i32 %36, 0
  br i1 %.not53, label %39, label %37

37:                                               ; preds = %31
  %38 = call ptr @vaErrorStr(i32 noundef %36) #9
  call void (ptr, i32, ptr, ...) @av_log(ptr noundef nonnull %0, i32 noundef 24, ptr noundef nonnull @.str.124, i32 noundef %36, ptr noundef %38) #9
  br label %61

39:                                               ; preds = %31
  %40 = load i32, ptr %16, align 4, !tbaa !132
  %41 = icmp eq i32 %40, -2147483648
  br i1 %41, label %.thread.thread.sink.split, label %42

42:                                               ; preds = %39
  %43 = icmp ne i32 %19, 0
  %44 = or i32 %.046, %19
  %or.cond.not = icmp ne i32 %44, 0
  %45 = and i32 %40, 1
  %.not54 = icmp eq i32 %45, 0
  %or.cond = and i1 %or.cond.not, %.not54
  br i1 %or.cond, label %50, label %46

46:                                               ; preds = %42
  %47 = icmp eq i32 %.046, 0
  br i1 %47, label %48, label %51

48:                                               ; preds = %46
  %49 = and i32 %40, 6
  %.not55 = icmp eq i32 %49, 0
  br i1 %.not55, label %.thread.thread, label %50

50:                                               ; preds = %42, %48
  call void (ptr, i32, ptr, ...) @av_log(ptr noundef nonnull %0, i32 noundef 16, ptr noundef nonnull @.str.126) #9
  br label %61

51:                                               ; preds = %46
  %52 = and i32 %40, 2
  %.not56 = icmp eq i32 %52, 0
  %or.cond58 = select i1 %.not56, i1 %43, i1 false
  br i1 %or.cond58, label %53, label %.thread

53:                                               ; preds = %51
  call void (ptr, i32, ptr, ...) @av_log(ptr noundef nonnull %0, i32 noundef 40, ptr noundef nonnull @.str.127) #9
  %.pre = load i32, ptr %16, align 4, !tbaa !132
  br label %.thread

.thread:                                          ; preds = %53, %51
  %54 = phi i32 [ %40, %51 ], [ %.pre, %53 ]
  %or.cond363 = phi i1 [ %43, %51 ], [ true, %53 ]
  %.1 = phi i32 [ 0, %51 ], [ 1, %53 ]
  %55 = and i32 %54, 4
  %.not57 = icmp ne i32 %55, 0
  %or.cond59 = select i1 %.not57, i1 %or.cond363, i1 false
  br i1 %or.cond59, label %56, label %.thread.thread

56:                                               ; preds = %.thread
  store i32 1, ptr %21, align 8, !tbaa !166
  br label %.thread.thread.sink.split

.thread.thread.sink.split:                        ; preds = %39, %56
  %.str.128.sink = phi ptr [ @.str.128, %56 ], [ @.str.125, %39 ]
  %.045.ph = phi i32 [ %.1, %56 ], [ 0, %39 ]
  call void (ptr, i32, ptr, ...) @av_log(ptr noundef nonnull %0, i32 noundef 40, ptr noundef nonnull %.str.128.sink) #9
  br label %.thread.thread

.thread.thread:                                   ; preds = %.thread.thread.sink.split, %48, %.thread, %27, %15
  %.045 = phi i32 [ 0, %15 ], [ 0, %27 ], [ %.1, %.thread ], [ 0, %48 ], [ %.045.ph, %.thread.thread.sink.split ]
  %57 = load ptr, ptr %22, align 8, !tbaa !53
  %58 = getelementptr inbounds nuw i8, ptr %57, i64 8
  %59 = load i32, ptr %58, align 8, !tbaa !60
  %60 = call i32 @ff_hw_base_init_gop_structure(ptr noundef nonnull %4, ptr noundef nonnull %0, i32 noundef %19, i32 noundef %.046, i32 noundef %59, i32 noundef %.045) #9
  %. = call i32 @llvm.smin.i32(i32 %60, i32 0)
  br label %61

61:                                               ; preds = %.thread.thread, %50, %37, %13
  %.0 = phi i32 [ -542398533, %13 ], [ -542398533, %37 ], [ -542398533, %50 ], [ %., %.thread.thread ]
  call void @llvm.lifetime.end.p0(i64 8, ptr nonnull %2) #9
  ret i32 %.0
}